target datalayout = "e-m:e-p270:32:32-p271:32:32-p272:64:64-i64:64-i128:128-f80:128-n8:16:32:64-S128"
target triple = "x86_64-pc-linux-gnu"

%struct.lua_TValue = type { %union.Value, [1 x i32], i32 }
%union.Value = type { ptr }
%struct.LuaTable = type { i8, i8, i8, i8, i8, i8, i8, i8, i32, %union.anon, ptr, ptr, ptr, ptr }
%union.anon = type { i32 }
%struct.LuaNode = type { %struct.lua_TValue, %struct.TKey }
%struct.TKey = type { %union.Value, [1 x i32], i32 }
%struct.TString = type { i8, i8, i8, i16, ptr, i32, i32, [1 x i8] }

@luaH_dummynode = dso_local constant { %struct.lua_TValue, { %union.Value, [1 x i32], i8, i8, i8, i8 } } zeroinitializer, align 8
@luaO_nilobject_ = external hidden global %struct.lua_TValue, align 8

; Function Attrs: mustprogress nounwind uwtable
define internal noundef ptr @_ZL7hashnumPK8LuaTabled(ptr noundef %0, double noundef %1) #4 {
  %3 = alloca ptr, align 8
  %4 = alloca double, align 8
  %5 = alloca [2 x i32], align 4
  %6 = alloca i32, align 4
  %7 = alloca i32, align 4
  %8 = alloca i32, align 4
  store ptr %0, ptr %3, align 8, !tbaa !9
  store double %1, ptr %4, align 8, !tbaa !74
  call void @llvm.lifetime.start.p0(i64 8, ptr %5) #7
  %9 = getelementptr inbounds [2 x i32], ptr %5, i64 0, i64 0
  call void @llvm.memcpy.p0.p0.i64(ptr align 4 %9, ptr align 8 %4, i64 8, i1 false)
  call void @llvm.lifetime.start.p0(i64 4, ptr %6) #7
  %10 = getelementptr inbounds [2 x i32], ptr %5, i64 0, i64 0
  %11 = load i32, ptr %10, align 4, !tbaa !13
  store i32 %11, ptr %6, align 4, !tbaa !13
  call void @llvm.lifetime.start.p0(i64 4, ptr %7) #7
  %12 = getelementptr inbounds [2 x i32], ptr %5, i64 0, i64 1
  %13 = load i32, ptr %12, align 4, !tbaa !13
  %14 = and i32 %13, 2147483647
  store i32 %14, ptr %7, align 4, !tbaa !13
  call void @llvm.lifetime.start.p0(i64 4, ptr %8) #7
  store i32 1540483477, ptr %8, align 4, !tbaa !13
  %15 = load i32, ptr %7, align 4, !tbaa !13
  %16 = lshr i32 %15, 18
  %17 = load i32, ptr %6, align 4, !tbaa !13
  %18 = xor i32 %17, %16
  store i32 %18, ptr %6, align 4, !tbaa !13
  %19 = load i32, ptr %6, align 4, !tbaa !13
  %20 = mul i32 %19, 1540483477
  store i32 %20, ptr %6, align 4, !tbaa !13
  %21 = load i32, ptr %6, align 4, !tbaa !13
  %22 = lshr i32 %21, 22
  %23 = load i32, ptr %7, align 4, !tbaa !13
  %24 = xor i32 %23, %22
  store i32 %24, ptr %7, align 4, !tbaa !13
  %25 = load i32, ptr %7, align 4, !tbaa !13
  %26 = mul i32 %25, 1540483477
  store i32 %26, ptr %7, align 4, !tbaa !13
  %27 = load i32, ptr %7, align 4, !tbaa !13
  %28 = lshr i32 %27, 17
  %29 = load i32, ptr %6, align 4, !tbaa !13
  %30 = xor i32 %29, %28
  store i32 %30, ptr %6, align 4, !tbaa !13
  %31 = load i32, ptr %6, align 4, !tbaa !13
  %32 = mul i32 %31, 1540483477
  store i32 %32, ptr %6, align 4, !tbaa !13
  %33 = load i32, ptr %6, align 4, !tbaa !13
  %34 = lshr i32 %33, 19
  %35 = load i32, ptr %7, align 4, !tbaa !13
  %36 = xor i32 %35, %34
  store i32 %36, ptr %7, align 4, !tbaa !13
  %37 = load i32, ptr %7, align 4, !tbaa !13
  %38 = mul i32 %37, 1540483477
  store i32 %38, ptr %7, align 4, !tbaa !13
  %39 = load ptr, ptr %3, align 8, !tbaa !9
  %40 = getelementptr inbounds nuw %struct.LuaTable, ptr %39, i32 0, i32 12
  %41 = load ptr, ptr %40, align 8, !tbaa !27
  %42 = load i32, ptr %7, align 4, !tbaa !13
  %43 = load ptr, ptr %3, align 8, !tbaa !9
  %44 = getelementptr inbounds nuw %struct.LuaTable, ptr %43, i32 0, i32 6
  %45 = load i8, ptr %44, align 2, !tbaa !26
  %46 = zext i8 %45 to i32
  %47 = shl i32 1, %46
  %48 = sub nsw i32 %47, 1
  %49 = and i32 %42, %48
  %50 = sext i32 %49 to i64
  %51 = getelementptr inbounds %struct.LuaNode, ptr %41, i64 %50
  call void @llvm.lifetime.end.p0(i64 4, ptr %8) #7
  call void @llvm.lifetime.end.p0(i64 4, ptr %7) #7
  call void @llvm.lifetime.end.p0(i64 4, ptr %6) #7
  call void @llvm.lifetime.end.p0(i64 8, ptr %5) #7
  ret ptr %51
}

; Function Attrs: mustprogress uwtable
define hidden noundef ptr @_Z11luaH_getnumP8LuaTablei(ptr noundef %0, i32 noundef %1) #0 {
  %3 = alloca ptr, align 8
  %4 = alloca ptr, align 8
  %5 = alloca i32, align 4
  %6 = alloca double, align 8
  %7 = alloca ptr, align 8
  %8 = alloca i32, align 4
  store ptr %0, ptr %4, align 8, !tbaa !9
  store i32 %1, ptr %5, align 4, !tbaa !13
  %9 = load i32, ptr %5, align 4, !tbaa !13
  %10 = sub nsw i32 %9, 1
  %11 = load ptr, ptr %4, align 8, !tbaa !9
  %12 = getelementptr inbounds nuw %struct.LuaTable, ptr %11, i32 0, i32 8
  %13 = load i32, ptr %12, align 8, !tbaa !15
  %14 = icmp ult i32 %10, %13
  br i1 %14, label %15, label %23

15:                                               ; preds = %2
  %16 = load ptr, ptr %4, align 8, !tbaa !9
  %17 = getelementptr inbounds nuw %struct.LuaTable, ptr %16, i32 0, i32 11
  %18 = load ptr, ptr %17, align 8, !tbaa !19
  %19 = load i32, ptr %5, align 4, !tbaa !13
  %20 = sub nsw i32 %19, 1
  %21 = sext i32 %20 to i64
  %22 = getelementptr inbounds %struct.lua_TValue, ptr %18, i64 %21
  store ptr %22, ptr %3, align 8
  br label %71

23:                                               ; preds = %2
  %24 = load ptr, ptr %4, align 8, !tbaa !9
  %25 = getelementptr inbounds nuw %struct.LuaTable, ptr %24, i32 0, i32 12
  %26 = load ptr, ptr %25, align 8, !tbaa !27
  %27 = icmp ne ptr %26, @luaH_dummynode
  br i1 %27, label %28, label %70

28:                                               ; preds = %23
  call void @llvm.lifetime.start.p0(i64 8, ptr %6) #7
  %29 = load i32, ptr %5, align 4, !tbaa !13
  %30 = sitofp i32 %29 to double
  store double %30, ptr %6, align 8, !tbaa !74
  call void @llvm.lifetime.start.p0(i64 8, ptr %7) #7
  %31 = load ptr, ptr %4, align 8, !tbaa !9
  %32 = load double, ptr %6, align 8, !tbaa !74
  %33 = call noundef ptr @_ZL7hashnumPK8LuaTabled(ptr noundef %31, double noundef %32)
  store ptr %33, ptr %7, align 8, !tbaa !31
  br label %34

34:                                               ; preds = %59, %28
  %35 = load ptr, ptr %7, align 8, !tbaa !31
  %36 = getelementptr inbounds nuw %struct.LuaNode, ptr %35, i32 0, i32 1
  %37 = getelementptr inbounds nuw %struct.TKey, ptr %36, i32 0, i32 2
  %38 = load i32, ptr %37, align 4
  %39 = and i32 %38, 15
  %40 = icmp eq i32 %39, 3
  br i1 %40, label %41, label %51

41:                                               ; preds = %34
  %42 = load ptr, ptr %7, align 8, !tbaa !31
  %43 = getelementptr inbounds nuw %struct.LuaNode, ptr %42, i32 0, i32 1
  %44 = getelementptr inbounds nuw %struct.TKey, ptr %43, i32 0, i32 0
  %45 = load double, ptr %44, align 8, !tbaa !22
  %46 = load double, ptr %6, align 8, !tbaa !74
  %47 = fcmp oeq double %45, %46
  br i1 %47, label %48, label %51

48:                                               ; preds = %41
  %49 = load ptr, ptr %7, align 8, !tbaa !31
  %50 = getelementptr inbounds nuw %struct.LuaNode, ptr %49, i32 0, i32 0
  store ptr %50, ptr %3, align 8
  store i32 1, ptr %8, align 4
  br label %69

51:                                               ; preds = %41, %34
  %52 = load ptr, ptr %7, align 8, !tbaa !31
  %53 = getelementptr inbounds nuw %struct.LuaNode, ptr %52, i32 0, i32 1
  %54 = getelementptr inbounds nuw %struct.TKey, ptr %53, i32 0, i32 2
  %55 = load i32, ptr %54, align 4
  %56 = ashr i32 %55, 4
  %57 = icmp eq i32 %56, 0
  br i1 %57, label %58, label %59

58:                                               ; preds = %51
  br label %68

59:                                               ; preds = %51
  %60 = load ptr, ptr %7, align 8, !tbaa !31
  %61 = getelementptr inbounds nuw %struct.LuaNode, ptr %60, i32 0, i32 1
  %62 = getelementptr inbounds nuw %struct.TKey, ptr %61, i32 0, i32 2
  %63 = load i32, ptr %62, align 4
  %64 = ashr i32 %63, 4
  %65 = load ptr, ptr %7, align 8, !tbaa !31
  %66 = sext i32 %64 to i64
  %67 = getelementptr inbounds %struct.LuaNode, ptr %65, i64 %66
  store ptr %67, ptr %7, align 8, !tbaa !31
  br label %34, !llvm.loop !75

68:                                               ; preds = %58
  store ptr @luaO_nilobject_, ptr %3, align 8
  store i32 1, ptr %8, align 4
  br label %69

69:                                               ; preds = %68, %48
  call void @llvm.lifetime.end.p0(i64 8, ptr %7) #7
  call void @llvm.lifetime.end.p0(i64 8, ptr %6) #7
  br label %71

70:                                               ; preds = %23
  store ptr @luaO_nilobject_, ptr %3, align 8
  br label %71

71:                                               ; preds = %70, %69, %15
  %72 = load ptr, ptr %3, align 8
  ret ptr %72
}

; Function Attrs: mustprogress nounwind uwtable
define hidden noundef ptr @_Z11luaH_getstrP8LuaTableP7TString(ptr noundef %0, ptr noundef %1) #4 {
  %3 = alloca ptr, align 8
  %4 = alloca ptr, align 8
  %5 = alloca ptr, align 8
  %6 = alloca ptr, align 8
  %7 = alloca i32, align 4
  store ptr %0, ptr %4, align 8, !tbaa !9
  store ptr %1, ptr %5, align 8, !tbaa !76
  call void @llvm.lifetime.start.p0(i64 8, ptr %6) #7
  %8 = load ptr, ptr %4, align 8, !tbaa !9
  %9 = getelementptr inbounds nuw %struct.LuaTable, ptr %8, i32 0, i32 12
  %10 = load ptr, ptr %9, align 8, !tbaa !27
  %11 = load ptr, ptr %5, align 8, !tbaa !76
  %12 = getelementptr inbounds nuw %struct.TString, ptr %11, i32 0, i32 5
  %13 = load i32, ptr %12, align 8, !tbaa !77
  %14 = load ptr, ptr %4, align 8, !tbaa !9
  %15 = getelementptr inbounds nuw %struct.LuaTable, ptr %14, i32 0, i32 6
  %16 = load i8, ptr %15, align 2, !tbaa !26
  %17 = zext i8 %16 to i32
  %18 = shl i32 1, %17
  %19 = sub nsw i32 %18, 1
  %20 = and i32 %13, %19
  %21 = sext i32 %20 to i64
  %22 = getelementptr inbounds %struct.LuaNode, ptr %10, i64 %21
  store ptr %22, ptr %6, align 8, !tbaa !31
  br label %23

23:                                               ; preds = %48, %2
  %24 = load ptr, ptr %6, align 8, !tbaa !31
  %25 = getelementptr inbounds nuw %struct.LuaNode, ptr %24, i32 0, i32 1
  %26 = getelementptr inbounds nuw %struct.TKey, ptr %25, i32 0, i32 2
  %27 = load i32, ptr %26, align 4
  %28 = and i32 %27, 15
  %29 = icmp eq i32 %28, 5
  br i1 %29, label %30, label %40

30:                                               ; preds = %23
  %31 = load ptr, ptr %6, align 8, !tbaa !31
  %32 = getelementptr inbounds nuw %struct.LuaNode, ptr %31, i32 0, i32 1
  %33 = getelementptr inbounds nuw %struct.TKey, ptr %32, i32 0, i32 0
  %34 = load ptr, ptr %33, align 8, !tbaa !22
  %35 = load ptr, ptr %5, align 8, !tbaa !76
  %36 = icmp eq ptr %34, %35
  br i1 %36, label %37, label %40

37:                                               ; preds = %30
  %38 = load ptr, ptr %6, align 8, !tbaa !31
  %39 = getelementptr inbounds nuw %struct.LuaNode, ptr %38, i32 0, i32 0
  store ptr %39, ptr %3, align 8
  store i32 1, ptr %7, align 4
  br label %58

40:                                               ; preds = %30, %23
  %41 = load ptr, ptr %6, align 8, !tbaa !31
  %42 = getelementptr inbounds nuw %struct.LuaNode, ptr %41, i32 0, i32 1
  %43 = getelementptr inbounds nuw %struct.TKey, ptr %42, i32 0, i32 2
  %44 = load i32, ptr %43, align 4
  %45 = ashr i32 %44, 4
  %46 = icmp eq i32 %45, 0
  br i1 %46, label %47, label %48

47:                                               ; preds = %40
  br label %57

48:                                               ; preds = %40
  %49 = load ptr, ptr %6, align 8, !tbaa !31
  %50 = getelementptr inbounds nuw %struct.LuaNode, ptr %49, i32 0, i32 1
  %51 = getelementptr inbounds nuw %struct.TKey, ptr %50, i32 0, i32 2
  %52 = load i32, ptr %51, align 4
  %53 = ashr i32 %52, 4
  %54 = load ptr, ptr %6, align 8, !tbaa !31
  %55 = sext i32 %53 to i64
  %56 = getelementptr inbounds %struct.LuaNode, ptr %54, i64 %55
  store ptr %56, ptr %6, align 8, !tbaa !31
  br label %23, !llvm.loop !79

57:                                               ; preds = %47
  store ptr @luaO_nilobject_, ptr %3, align 8
  store i32 1, ptr %7, align 4
  br label %58

58:                                               ; preds = %57, %37
  call void @llvm.lifetime.end.p0(i64 8, ptr %6) #7
  %59 = load ptr, ptr %3, align 8
  ret ptr %59
}

; Function Attrs: mustprogress uwtable
define hidden noundef ptr @_Z8luaH_getP8LuaTablePK10lua_TValue(ptr noundef %0, ptr noundef %1) #0 {
  %3 = alloca ptr, align 8
  %4 = alloca ptr, align 8
  %5 = alloca ptr, align 8
  %6 = alloca i32, align 4
  %7 = alloca double, align 8
  %8 = alloca i32, align 4
  %9 = alloca ptr, align 8
  store ptr %0, ptr %4, align 8, !tbaa !9
  store ptr %1, ptr %5, align 8, !tbaa !11
  %10 = load ptr, ptr %5, align 8, !tbaa !11
  %11 = getelementptr inbounds nuw %struct.lua_TValue, ptr %10, i32 0, i32 2
  %12 = load i32, ptr %11, align 4, !tbaa !20
  switch i32 %12, label %40 [
    i32 0, label %13
    i32 5, label %14
    i32 3, label %20
  ]

13:                                               ; preds = %2
  store ptr @luaO_nilobject_, ptr %3, align 8
  br label %72

14:                                               ; preds = %2
  %15 = load ptr, ptr %4, align 8, !tbaa !9
  %16 = load ptr, ptr %5, align 8, !tbaa !11
  %17 = getelementptr inbounds nuw %struct.lua_TValue, ptr %16, i32 0, i32 0
  %18 = load ptr, ptr %17, align 8, !tbaa !22
  %19 = call noundef ptr @_Z11luaH_getstrP8LuaTableP7TString(ptr noundef %15, ptr noundef %18)
  store ptr %19, ptr %3, align 8
  br label %72

20:                                               ; preds = %2
  call void @llvm.lifetime.start.p0(i64 4, ptr %6) #7
  call void @llvm.lifetime.start.p0(i64 8, ptr %7) #7
  %21 = load ptr, ptr %5, align 8, !tbaa !11
  %22 = getelementptr inbounds nuw %struct.lua_TValue, ptr %21, i32 0, i32 0
  %23 = load double, ptr %22, align 8, !tbaa !22
  store double %23, ptr %7, align 8, !tbaa !74
  %24 = load double, ptr %7, align 8, !tbaa !74
  %25 = fptosi double %24 to i32
  store i32 %25, ptr %6, align 4, !tbaa !13
  %26 = load i32, ptr %6, align 4, !tbaa !13
  %27 = sitofp i32 %26 to double
  %28 = load ptr, ptr %5, align 8, !tbaa !11
  %29 = getelementptr inbounds nuw %struct.lua_TValue, ptr %28, i32 0, i32 0
  %30 = load double, ptr %29, align 8, !tbaa !22
  %31 = fcmp oeq double %27, %30
  br i1 %31, label %32, label %36

32:                                               ; preds = %20
  %33 = load ptr, ptr %4, align 8, !tbaa !9
  %34 = load i32, ptr %6, align 4, !tbaa !13
  %35 = call noundef ptr @_Z11luaH_getnumP8LuaTablei(ptr noundef %33, i32 noundef %34)
  store ptr %35, ptr %3, align 8
  store i32 1, ptr %8, align 4
  br label %37

36:                                               ; preds = %20
  store i32 0, ptr %8, align 4
  br label %37

37:                                               ; preds = %36, %32
  call void @llvm.lifetime.end.p0(i64 8, ptr %7) #7
  call void @llvm.lifetime.end.p0(i64 4, ptr %6) #7
  %38 = load i32, ptr %8, align 4
  switch i32 %38, label %74 [
    i32 0, label %39
    i32 1, label %72
  ]

39:                                               ; preds = %37
  br label %40

40:                                               ; preds = %2, %39
  call void @llvm.lifetime.start.p0(i64 8, ptr %9) #7
  %41 = load ptr, ptr %4, align 8, !tbaa !9
  %42 = load ptr, ptr %5, align 8, !tbaa !11
  %43 = call noundef ptr @_ZL12mainpositionPK8LuaTablePK10lua_TValue(ptr noundef %41, ptr noundef %42)
  store ptr %43, ptr %9, align 8, !tbaa !31
  br label %44

44:                                               ; preds = %61, %40
  %45 = load ptr, ptr %9, align 8, !tbaa !31
  %46 = getelementptr inbounds nuw %struct.LuaNode, ptr %45, i32 0, i32 1
  %47 = load ptr, ptr %5, align 8, !tbaa !11
  %48 = call noundef i32 @_Z16luaO_rawequalKeyPK4TKeyPK10lua_TValue(ptr noundef %46, ptr noundef %47)
  %49 = icmp ne i32 %48, 0
  br i1 %49, label %50, label %53

50:                                               ; preds = %44
  %51 = load ptr, ptr %9, align 8, !tbaa !31
  %52 = getelementptr inbounds nuw %struct.LuaNode, ptr %51, i32 0, i32 0
  store ptr %52, ptr %3, align 8
  store i32 1, ptr %8, align 4
  br label %71

53:                                               ; preds = %44
  %54 = load ptr, ptr %9, align 8, !tbaa !31
  %55 = getelementptr inbounds nuw %struct.LuaNode, ptr %54, i32 0, i32 1
  %56 = getelementptr inbounds nuw %struct.TKey, ptr %55, i32 0, i32 2
  %57 = load i32, ptr %56, align 4
  %58 = ashr i32 %57, 4
  %59 = icmp eq i32 %58, 0
  br i1 %59, label %60, label %61

60:                                               ; preds = %53
  br label %70

61:                                               ; preds = %53
  %62 = load ptr, ptr %9, align 8, !tbaa !31
  %63 = getelementptr inbounds nuw %struct.LuaNode, ptr %62, i32 0, i32 1
  %64 = getelementptr inbounds nuw %struct.TKey, ptr %63, i32 0, i32 2
  %65 = load i32, ptr %64, align 4
  %66 = ashr i32 %65, 4
  %67 = load ptr, ptr %9, align 8, !tbaa !31
  %68 = sext i32 %66 to i64
  %69 = getelementptr inbounds %struct.LuaNode, ptr %67, i64 %68
  store ptr %69, ptr %9, align 8, !tbaa !31
  br label %44, !llvm.loop !80

70:                                               ; preds = %60
  store ptr @luaO_nilobject_, ptr %3, align 8
  store i32 1, ptr %8, align 4
  br label %71

71:                                               ; preds = %70, %50
  call void @llvm.lifetime.end.p0(i64 8, ptr %9) #7
  br label %72

72:                                               ; preds = %71, %37, %14, %13
  %73 = load ptr, ptr %3, align 8
  ret ptr %73

74:                                               ; preds = %37
  unreachable
}