; Function Attrs: mustprogress uwtable
define hidden noundef ptr @_Z8luaH_getP8LuaTablePK10lua_TValue(ptr noundef readonly captures(none) %0, ptr noundef %1) local_unnamed_addr #0 {
  %3 = getelementptr inbounds nuw i8, ptr %1, i64 12
  %4 = load i32, ptr %3, align 4, !tbaa !4
  switch i32 %4, label %_Z11luaH_getnumP8LuaTablei.exit.thread24 [
    i32 0, label %_Z11luaH_getstrP8LuaTableP7TString.exit
    i32 5, label %5
    i32 3, label %33
  ]

5:                                                ; preds = %2
  %6 = load ptr, ptr %1, align 8, !tbaa !16
  %7 = getelementptr inbounds nuw i8, ptr %0, i64 32
  %8 = load ptr, ptr %7, align 8, !tbaa !17
  %9 = getelementptr inbounds nuw i8, ptr %6, i64 16
  %10 = load i32, ptr %9, align 8, !tbaa !64
  %11 = getelementptr inbounds nuw i8, ptr %0, i64 6
  %12 = load i8, ptr %11, align 2, !tbaa !22
  %13 = zext nneg i8 %12 to i32
  %notmask.i = shl nsw i32 -1, %13
  %14 = xor i32 %notmask.i, -1
  %15 = and i32 %10, %14
  %16 = zext nneg i32 %15 to i64
  %17 = getelementptr inbounds nuw %struct.LuaNode, ptr %8, i64 %16
  br label %18

18:                                               ; preds = %29, %5
  %.0.i = phi ptr [ %17, %5 ], [ %32, %29 ]
  %19 = getelementptr inbounds nuw i8, ptr %.0.i, i64 28
  %20 = load i32, ptr %19, align 4
  %21 = and i32 %20, 15
  %22 = icmp eq i32 %21, 5
  br i1 %22, label %23, label %27

23:                                               ; preds = %18
  %24 = getelementptr inbounds nuw i8, ptr %.0.i, i64 16
  %25 = load ptr, ptr %24, align 8, !tbaa !16
  %26 = icmp eq ptr %25, %6
  br i1 %26, label %_Z11luaH_getstrP8LuaTableP7TString.exit, label %27

27:                                               ; preds = %23, %18
  %28 = icmp ult i32 %20, 16
  br i1 %28, label %_Z11luaH_getstrP8LuaTableP7TString.exit, label %29

29:                                               ; preds = %27
  %30 = ashr i32 %20, 4
  %31 = sext i32 %30 to i64
  %32 = getelementptr inbounds %struct.LuaNode, ptr %.0.i, i64 %31
  br label %18, !llvm.loop !66

33:                                               ; preds = %2
  %34 = load double, ptr %1, align 8, !tbaa !16
  %35 = fptosi double %34 to i32
  %36 = sitofp i32 %35 to double
  %37 = fcmp oeq double %34, %36
  br i1 %37, label %38, label %_Z11luaH_getnumP8LuaTablei.exit.thread24

38:                                               ; preds = %33
  %39 = add nsw i32 %35, -1
  %40 = getelementptr inbounds nuw i8, ptr %0, i64 8
  %41 = load i32, ptr %40, align 8, !tbaa !9
  %42 = icmp ult i32 %39, %41
  br i1 %42, label %43, label %48

43:                                               ; preds = %38
  %44 = getelementptr inbounds nuw i8, ptr %0, i64 24
  %45 = load ptr, ptr %44, align 8, !tbaa !20
  %46 = sext i32 %39 to i64
  %47 = getelementptr inbounds %struct.lua_TValue, ptr %45, i64 %46
  br label %_Z11luaH_getstrP8LuaTableP7TString.exit

48:                                               ; preds = %38
  %49 = getelementptr inbounds nuw i8, ptr %0, i64 32
  %50 = load ptr, ptr %49, align 8, !tbaa !17
  %.not.i = icmp eq ptr %50, @luaH_dummynode
  br i1 %.not.i, label %_Z11luaH_getstrP8LuaTableP7TString.exit, label %51

51:                                               ; preds = %48
  %52 = getelementptr i8, ptr %0, i64 6
  %.val.i = load i8, ptr %52, align 2, !tbaa !22
  %53 = bitcast double %36 to i64
  %.0.extract.trunc.i.i = trunc i64 %53 to i32
  %.4.extract.shift.i.i = lshr i64 %53, 32
  %.4.extract.trunc.i.i = trunc nuw i64 %.4.extract.shift.i.i to i32
  %54 = and i32 %.4.extract.trunc.i.i, 2147483647
  %55 = lshr i32 %54, 18
  %56 = xor i32 %55, %.0.extract.trunc.i.i
  %57 = mul i32 %56, 1540483477
  %58 = lshr i32 %57, 22
  %59 = xor i32 %58, %54
  %60 = mul i32 %59, 1540483477
  %61 = lshr i32 %60, 17
  %62 = xor i32 %61, %57
  %63 = mul i32 %62, 1540483477
  %64 = lshr i32 %63, 19
  %65 = xor i32 %64, %60
  %66 = mul i32 %65, 1540483477
  %67 = zext nneg i8 %.val.i to i32
  %notmask.i.i = shl nsw i32 -1, %67
  %68 = xor i32 %notmask.i.i, -1
  %69 = and i32 %66, %68
  %70 = zext nneg i32 %69 to i64
  %71 = getelementptr inbounds nuw %struct.LuaNode, ptr %50, i64 %70
  br label %72

72:                                               ; preds = %83, %51
  %.0.i21 = phi ptr [ %71, %51 ], [ %86, %83 ]
  %73 = getelementptr inbounds nuw i8, ptr %.0.i21, i64 28
  %74 = load i32, ptr %73, align 4
  %75 = and i32 %74, 15
  %76 = icmp eq i32 %75, 3
  br i1 %76, label %77, label %81

77:                                               ; preds = %72
  %78 = getelementptr inbounds nuw i8, ptr %.0.i21, i64 16
  %79 = load double, ptr %78, align 8, !tbaa !16
  %80 = fcmp oeq double %79, %36
  br i1 %80, label %_Z11luaH_getstrP8LuaTableP7TString.exit, label %81

81:                                               ; preds = %77, %72
  %82 = icmp ult i32 %74, 16
  br i1 %82, label %_Z11luaH_getstrP8LuaTableP7TString.exit, label %83

83:                                               ; preds = %81
  %84 = ashr i32 %74, 4
  %85 = sext i32 %84 to i64
  %86 = getelementptr inbounds %struct.LuaNode, ptr %.0.i21, i64 %85
  br label %72, !llvm.loop !28

_Z11luaH_getnumP8LuaTablei.exit.thread24:         ; preds = %33, %2
  %87 = tail call fastcc noundef ptr @_ZL12mainpositionPK8LuaTablePK10lua_TValue(ptr noundef %0, ptr noundef nonnull %1)
  %88 = getelementptr inbounds nuw i8, ptr %87, i64 16
  %89 = tail call noundef i32 @_Z16luaO_rawequalKeyPK4TKeyPK10lua_TValue(ptr noundef nonnull %88, ptr noundef nonnull %1)
  %.not31 = icmp eq i32 %89, 0
  br i1 %.not31, label %.lr.ph, label %_Z11luaH_getstrP8LuaTableP7TString.exit

.lr.ph:                                           ; preds = %_Z11luaH_getnumP8LuaTablei.exit.thread24, %93
  %.032 = phi ptr [ %96, %93 ], [ %87, %_Z11luaH_getnumP8LuaTablei.exit.thread24 ]
  %90 = getelementptr inbounds nuw i8, ptr %.032, i64 28
  %91 = load i32, ptr %90, align 4
  %92 = icmp ult i32 %91, 16
  br i1 %92, label %_Z11luaH_getstrP8LuaTableP7TString.exit, label %93

93:                                               ; preds = %.lr.ph
  %94 = ashr i32 %91, 4
  %95 = sext i32 %94 to i64
  %96 = getelementptr inbounds %struct.LuaNode, ptr %.032, i64 %95
  %97 = getelementptr inbounds nuw i8, ptr %96, i64 16
  %98 = tail call noundef i32 @_Z16luaO_rawequalKeyPK4TKeyPK10lua_TValue(ptr noundef nonnull %97, ptr noundef nonnull %1)
  %.not = icmp eq i32 %98, 0
  br i1 %.not, label %.lr.ph, label %_Z11luaH_getstrP8LuaTableP7TString.exit, !llvm.loop !67

_Z11luaH_getstrP8LuaTableP7TString.exit:          ; preds = %77, %81, %27, %23, %.lr.ph, %93, %_Z11luaH_getnumP8LuaTablei.exit.thread24, %43, %48, %2
  %.019 = phi ptr [ @luaO_nilobject_, %2 ], [ @luaO_nilobject_, %48 ], [ %47, %43 ], [ %87, %_Z11luaH_getnumP8LuaTablei.exit.thread24 ], [ @luaO_nilobject_, %.lr.ph ], [ %96, %93 ], [ @luaO_nilobject_, %27 ], [ %.0.i, %23 ], [ %.0.i21, %77 ], [ @luaO_nilobject_, %81 ]
  ret ptr %.019
}